; Function Attrs: nounwind sspstrong uwtable
define internal void @esp_class_init(ptr noundef %klass, ptr readnone captures(none) %data) #0 {
entry:
  %call.i = tail call ptr @object_class_dynamic_cast_assert(ptr noundef %klass, ptr noundef nonnull @.str.110, ptr noundef nonnull @.str.69, i32 noundef 77, ptr noundef nonnull @__func__.DEVICE_CLASS) #10
  %user_creatable = getelementptr inbounds nuw i8, ptr %call.i, i64 128
  store i8 0, ptr %user_creatable, align 8
  %categories = getelementptr inbounds nuw i8, ptr %call.i, i64 96
  %0 = load i64, ptr %categories, align 8
  %or.i = or i64 %0, 4
  store i64 %or.i, ptr %categories, align 8
  ret void
}